target datalayout = "e-m:e-p270:32:32-p271:32:32-p272:64:64-i64:64-i128:128-f80:128-n8:16:32:64-S128"
target triple = "x86_64-pc-linux-gnu"

%struct.evp_cipher_ctx_st = type { ptr, ptr, i32, i32, [16 x i8], [16 x i8], [32 x i8], i32, ptr, i32, i32, i64, ptr, i32, i32, [32 x i8], i64, ptr, ptr }
%struct.EVP_AES_GCM_CTX = type { %union.anon.1, i32, i32, %struct.gcm128_context, ptr, i32, i32, i32, i32, i32, i64, ptr }
%union.anon.1 = type { double, [240 x i8] }
%struct.gcm128_context = type { %union.anon.2, %union.anon.2, %union.anon.2, %union.anon.2, %union.anon.2, %union.anon.2, [16 x %struct.u128], %struct.gcm_funcs_st, i32, i32, ptr, ptr, [48 x i8] }
%union.anon.2 = type { [2 x i64] }
%struct.u128 = type { i64, i64 }
%struct.gcm_funcs_st = type { ptr, ptr, ptr }

@.str = private unnamed_addr constant [30 x i8] c"../openssl/crypto/evp/e_aes.c\00", align 1

; Function Attrs: nounwind uwtable
define internal i32 @aes_gcm_cleanup(ptr noundef %0) #0 {
  %2 = alloca i32, align 4
  %3 = alloca ptr, align 8
  %4 = alloca ptr, align 8
  %5 = alloca i32, align 4
  store ptr %0, ptr %3, align 8, !tbaa !7
  call void @llvm.lifetime.start.p0(i64 8, ptr %4) #4
  %6 = load ptr, ptr %3, align 8, !tbaa !7
  %7 = call ptr @EVP_CIPHER_CTX_get_cipher_data(ptr noundef %6)
  store ptr %7, ptr %4, align 8, !tbaa !12
  %8 = load ptr, ptr %4, align 8, !tbaa !12
  %9 = icmp eq ptr %8, null
  br i1 %9, label %10, label %11

10:                                               ; preds = %1
  store i32 0, ptr %2, align 4
  store i32 1, ptr %5, align 4
  br label %26

11:                                               ; preds = %1
  %12 = load ptr, ptr %4, align 8, !tbaa !12
  %13 = getelementptr inbounds nuw %struct.EVP_AES_GCM_CTX, ptr %12, i32 0, i32 3
  call void @OPENSSL_cleanse(ptr noundef %13, i64 noundef 448)
  %14 = load ptr, ptr %4, align 8, !tbaa !12
  %15 = getelementptr inbounds nuw %struct.EVP_AES_GCM_CTX, ptr %14, i32 0, i32 4
  %16 = load ptr, ptr %15, align 8, !tbaa !26
  %17 = load ptr, ptr %3, align 8, !tbaa !7
  %18 = getelementptr inbounds nuw %struct.evp_cipher_ctx_st, ptr %17, i32 0, i32 5
  %19 = getelementptr inbounds [16 x i8], ptr %18, i64 0, i64 0
  %20 = icmp ne ptr %16, %19
  br i1 %20, label %21, label %25

21:                                               ; preds = %11
  %22 = load ptr, ptr %4, align 8, !tbaa !12
  %23 = getelementptr inbounds nuw %struct.EVP_AES_GCM_CTX, ptr %22, i32 0, i32 4
  %24 = load ptr, ptr %23, align 8, !tbaa !26
  call void @CRYPTO_free(ptr noundef %24, ptr noundef @.str, i32 noundef 2646)
  br label %25

25:                                               ; preds = %21, %11
  store i32 1, ptr %2, align 4
  store i32 1, ptr %5, align 4
  br label %26

26:                                               ; preds = %25, %10
  call void @llvm.lifetime.end.p0(i64 8, ptr %4) #4
  %27 = load i32, ptr %2, align 4
  ret i32 %27
}