; Function Attrs: nounwind uwtable
define internal range(i32 0, 2) i32 @aes_gcm_cleanup(ptr noundef %0) #2 {
  %2 = tail call ptr @EVP_CIPHER_CTX_get_cipher_data(ptr noundef %0) #8
  %3 = icmp eq ptr %2, null
  br i1 %3, label %10, label %4

4:                                                ; preds = %1
  %5 = getelementptr inbounds nuw i8, ptr %2, i64 256
  tail call void @OPENSSL_cleanse(ptr noundef nonnull %5, i64 noundef 448) #8
  %6 = getelementptr inbounds nuw i8, ptr %2, i64 704
  %7 = load ptr, ptr %6, align 8, !tbaa !21
  %8 = getelementptr inbounds nuw i8, ptr %0, i64 40
  %.not = icmp eq ptr %7, %8
  br i1 %.not, label %10, label %9

9:                                                ; preds = %4
  tail call void @CRYPTO_free(ptr noundef %7, ptr noundef nonnull @.str, i32 noundef 2646) #8
  br label %10

10:                                               ; preds = %4, %9, %1
  %.0 = phi i32 [ 0, %1 ], [ 1, %9 ], [ 1, %4 ]
  ret i32 %.0
}